target datalayout = "e-m:e-p270:32:32-p271:32:32-p272:64:64-i64:64-i128:128-f80:128-n8:16:32:64-S128"
target triple = "x86_64-pc-linux-gnu"

%"class.std::shared_ptr" = type { %"class.std::__shared_ptr" }
%"class.std::__shared_ptr" = type { ptr, %"class.std::__shared_count" }
%"class.std::__shared_count" = type { ptr }
%"class.Assimp::Discreet3DSExporter" = type { ptr, %"class.Assimp::StreamWriter", %"class.std::map", %"class.std::multimap" }
%"class.Assimp::StreamWriter" = type { %"class.std::shared_ptr", i8, %"class.std::vector.6", i64 }
%"class.std::vector.6" = type { %"struct.std::_Vector_base.7" }
%"struct.std::_Vector_base.7" = type { %"struct.std::_Vector_base<unsigned char, std::allocator<unsigned char>>::_Vector_impl" }
%"struct.std::_Vector_base<unsigned char, std::allocator<unsigned char>>::_Vector_impl" = type { %"struct.std::_Vector_base<unsigned char, std::allocator<unsigned char>>::_Vector_impl_data" }
%"struct.std::_Vector_base<unsigned char, std::allocator<unsigned char>>::_Vector_impl_data" = type { ptr, ptr, ptr }
%"class.std::map" = type { %"class.std::_Rb_tree" }
%"class.std::_Rb_tree" = type { %"struct.std::_Rb_tree<const aiNode *, std::pair<const aiNode *const, aiMatrix4x4t<float>>, std::_Select1st<std::pair<const aiNode *const, aiMatrix4x4t<float>>>, std::less<const aiNode *>>::_Rb_tree_impl" }
%"struct.std::_Rb_tree<const aiNode *, std::pair<const aiNode *const, aiMatrix4x4t<float>>, std::_Select1st<std::pair<const aiNode *const, aiMatrix4x4t<float>>>, std::less<const aiNode *>>::_Rb_tree_impl" = type { [8 x i8], %"struct.std::_Rb_tree_header" }
%"struct.std::_Rb_tree_header" = type { %"struct.std::_Rb_tree_node_base", i64 }
%"struct.std::_Rb_tree_node_base" = type { i32, ptr, ptr, ptr }
%"class.std::multimap" = type { %"class.std::_Rb_tree.14" }
%"class.std::_Rb_tree.14" = type { %"struct.std::_Rb_tree<const aiNode *, std::pair<const aiNode *const, unsigned int>, std::_Select1st<std::pair<const aiNode *const, unsigned int>>, std::less<const aiNode *>>::_Rb_tree_impl" }
%"struct.std::_Rb_tree<const aiNode *, std::pair<const aiNode *const, unsigned int>, std::_Select1st<std::pair<const aiNode *const, unsigned int>>, std::less<const aiNode *>>::_Rb_tree_impl" = type { [8 x i8], %"struct.std::_Rb_tree_header" }
%"class.Assimp::(anonymous namespace)::ChunkWriter" = type { ptr, i64 }
%"struct.Assimp::Intern::Getter" = type { i8 }
%"struct.Assimp::Intern::ByteSwapper" = type { i8 }
%"struct.Assimp::Intern::Getter.36" = type { i8 }
%"struct.Assimp::Intern::ByteSwapper.37" = type { i8 }
%"struct.Assimp::Intern::Getter.40" = type { i8 }
%"struct.Assimp::Intern::ByteSwapper.41" = type { i8 }

; Function Attrs: mustprogress nounwind uwtable
define linkonce_odr hidden void @_ZN6Assimp6Intern11ByteSwapperIjLb0EEclEPj(ptr noundef nonnull align 1 dereferenceable(1) %0, ptr noundef %1) #3 comdat align 2 {
  %3 = alloca ptr, align 8
  %4 = alloca ptr, align 8
  store ptr %0, ptr %3, align 8
  store ptr %1, ptr %4, align 8
  ret void
}

; Function Attrs: mustprogress nounwind uwtable
define linkonce_odr hidden void @_ZN6Assimp6Intern11ByteSwapperItLb0EEclEPt(ptr noundef nonnull align 1 dereferenceable(1) %0, ptr noundef %1) #3 comdat align 2 {
  %3 = alloca ptr, align 8
  %4 = alloca ptr, align 8
  store ptr %0, ptr %3, align 8
  store ptr %1, ptr %4, align 8
  ret void
}

; Function Attrs: mustprogress nounwind uwtable
define linkonce_odr hidden void @_ZN6Assimp6Intern11ByteSwapperIfLb0EEclEPf(ptr noundef nonnull align 1 dereferenceable(1) %0, ptr noundef %1) #3 comdat align 2 {
  %3 = alloca ptr, align 8
  %4 = alloca ptr, align 8
  store ptr %0, ptr %3, align 8
  store ptr %1, ptr %4, align 8
  ret void
}

; Function Attrs: mustprogress uwtable
define linkonce_odr hidden void @_ZN6Assimp6Intern6GetterILb0EjLb0EEclEPjb(ptr noundef nonnull align 1 dereferenceable(1) %0, ptr noundef %1, i1 noundef zeroext %2) #1 comdat align 2 {
  %4 = alloca ptr, align 8
  %5 = alloca ptr, align 8
  %6 = alloca i8, align 1
  %7 = alloca %"struct.Assimp::Intern::ByteSwapper", align 1
  store ptr %0, ptr %4, align 8
  store ptr %1, ptr %5, align 8
  %8 = zext i1 %2 to i8
  store i8 %8, ptr %6, align 1
  call void @llvm.lifetime.start.p0(i64 1, ptr %7) #20
  %9 = load ptr, ptr %5, align 8
  call void @_ZN6Assimp6Intern11ByteSwapperIjLb0EEclEPj(ptr noundef nonnull align 1 dereferenceable(1) %7, ptr noundef %9)
  call void @llvm.lifetime.end.p0(i64 1, ptr %7) #20
  ret void
}

; Function Attrs: mustprogress uwtable
define linkonce_odr hidden void @_ZN6Assimp6Intern6GetterILb0EtLb0EEclEPtb(ptr noundef nonnull align 1 dereferenceable(1) %0, ptr noundef %1, i1 noundef zeroext %2) #1 comdat align 2 {
  %4 = alloca ptr, align 8
  %5 = alloca ptr, align 8
  %6 = alloca i8, align 1
  %7 = alloca %"struct.Assimp::Intern::ByteSwapper.37", align 1
  store ptr %0, ptr %4, align 8
  store ptr %1, ptr %5, align 8
  %8 = zext i1 %2 to i8
  store i8 %8, ptr %6, align 1
  call void @llvm.lifetime.start.p0(i64 1, ptr %7) #20
  %9 = load ptr, ptr %5, align 8
  call void @_ZN6Assimp6Intern11ByteSwapperItLb0EEclEPt(ptr noundef nonnull align 1 dereferenceable(1) %7, ptr noundef %9)
  call void @llvm.lifetime.end.p0(i64 1, ptr %7) #20
  ret void
}

; Function Attrs: mustprogress nounwind uwtable
define linkonce_odr noundef nonnull align 1 dereferenceable(1) ptr @_ZNSt6vectorIhSaIhEEixEm(ptr noundef nonnull align 8 dereferenceable(24) %0, i64 noundef %1) #3 comdat align 2 {
  %3 = alloca ptr, align 8
  %4 = alloca i64, align 8
  store ptr %0, ptr %3, align 8
  store i64 %1, ptr %4, align 8
  %5 = load ptr, ptr %3, align 8
  %6 = getelementptr inbounds nuw %"struct.std::_Vector_base.7", ptr %5, i32 0, i32 0
  %7 = getelementptr inbounds nuw %"struct.std::_Vector_base<unsigned char, std::allocator<unsigned char>>::_Vector_impl_data", ptr %6, i32 0, i32 0
  %8 = load ptr, ptr %7, align 8
  %9 = load i64, ptr %4, align 8
  %10 = getelementptr inbounds nuw i8, ptr %8, i64 %9
  ret ptr %10
}

; Function Attrs: mustprogress nounwind uwtable
define linkonce_odr noundef i64 @_ZNKSt6vectorIhSaIhEE4sizeEv(ptr noundef nonnull align 8 dereferenceable(24) %0) #3 comdat align 2 {
  %2 = alloca ptr, align 8
  store ptr %0, ptr %2, align 8
  %3 = load ptr, ptr %2, align 8
  %4 = getelementptr inbounds nuw %"struct.std::_Vector_base.7", ptr %3, i32 0, i32 0
  %5 = getelementptr inbounds nuw %"struct.std::_Vector_base<unsigned char, std::allocator<unsigned char>>::_Vector_impl_data", ptr %4, i32 0, i32 1
  %6 = load ptr, ptr %5, align 8
  %7 = getelementptr inbounds nuw %"struct.std::_Vector_base.7", ptr %3, i32 0, i32 0
  %8 = getelementptr inbounds nuw %"struct.std::_Vector_base<unsigned char, std::allocator<unsigned char>>::_Vector_impl_data", ptr %7, i32 0, i32 0
  %9 = load ptr, ptr %8, align 8
  %10 = ptrtoint ptr %6 to i64
  %11 = ptrtoint ptr %9 to i64
  %12 = sub i64 %10, %11
  ret i64 %12
}

; Function Attrs: mustprogress uwtable
define linkonce_odr hidden void @_ZN6Assimp6Intern6GetterILb0EfLb0EEclEPfb(ptr noundef nonnull align 1 dereferenceable(1) %0, ptr noundef %1, i1 noundef zeroext %2) #1 comdat align 2 {
  %4 = alloca ptr, align 8
  %5 = alloca ptr, align 8
  %6 = alloca i8, align 1
  %7 = alloca %"struct.Assimp::Intern::ByteSwapper.41", align 1
  store ptr %0, ptr %4, align 8
  store ptr %1, ptr %5, align 8
  %8 = zext i1 %2 to i8
  store i8 %8, ptr %6, align 1
  call void @llvm.lifetime.start.p0(i64 1, ptr %7) #20
  %9 = load ptr, ptr %5, align 8
  call void @_ZN6Assimp6Intern11ByteSwapperIfLb0EEclEPf(ptr noundef nonnull align 1 dereferenceable(1) %7, ptr noundef %9)
  call void @llvm.lifetime.end.p0(i64 1, ptr %7) #20
  ret void
}

; Function Attrs: mustprogress uwtable
define linkonce_odr hidden void @_ZN6Assimp12StreamWriterILb0ELb0EE3PutIjEEvT_(ptr noundef nonnull align 8 dereferenceable(56) %0, i32 noundef %1) #1 comdat align 2 {
  %3 = alloca ptr, align 8
  %4 = alloca i32, align 4
  %5 = alloca %"struct.Assimp::Intern::Getter", align 1
  %6 = alloca ptr, align 8
  store ptr %0, ptr %3, align 8
  store i32 %1, ptr %4, align 4
  %7 = load ptr, ptr %3, align 8
  call void @llvm.lifetime.start.p0(i64 1, ptr %5) #20
  %8 = getelementptr inbounds nuw %"class.Assimp::StreamWriter", ptr %7, i32 0, i32 1
  %9 = load i8, ptr %8, align 8, !range !3, !noundef !4
  %10 = trunc i8 %9 to i1
  call void @_ZN6Assimp6Intern6GetterILb0EjLb0EEclEPjb(ptr noundef nonnull align 1 dereferenceable(1) %5, ptr noundef %4, i1 noundef zeroext %10)
  call void @llvm.lifetime.end.p0(i64 1, ptr %5) #20
  %11 = getelementptr inbounds nuw %"class.Assimp::StreamWriter", ptr %7, i32 0, i32 3
  %12 = load i64, ptr %11, align 8
  %13 = add i64 %12, 4
  %14 = getelementptr inbounds nuw %"class.Assimp::StreamWriter", ptr %7, i32 0, i32 2
  %15 = call noundef i64 @_ZNKSt6vectorIhSaIhEE4sizeEv(ptr noundef nonnull align 8 dereferenceable(24) %14) #20
  %16 = icmp uge i64 %13, %15
  br i1 %16, label %17, label %22

17:                                               ; preds = %2
  %18 = getelementptr inbounds nuw %"class.Assimp::StreamWriter", ptr %7, i32 0, i32 2
  %19 = getelementptr inbounds nuw %"class.Assimp::StreamWriter", ptr %7, i32 0, i32 3
  %20 = load i64, ptr %19, align 8
  %21 = add i64 %20, 4
  call void @_ZNSt6vectorIhSaIhEE6resizeEm(ptr noundef nonnull align 8 dereferenceable(24) %18, i64 noundef %21)
  br label %22

22:                                               ; preds = %17, %2
  call void @llvm.lifetime.start.p0(i64 8, ptr %6) #20
  %23 = getelementptr inbounds nuw %"class.Assimp::StreamWriter", ptr %7, i32 0, i32 2
  %24 = getelementptr inbounds nuw %"class.Assimp::StreamWriter", ptr %7, i32 0, i32 3
  %25 = load i64, ptr %24, align 8
  %26 = call noundef nonnull align 1 dereferenceable(1) ptr @_ZNSt6vectorIhSaIhEEixEm(ptr noundef nonnull align 8 dereferenceable(24) %23, i64 noundef %25) #20
  store ptr %26, ptr %6, align 8
  %27 = load ptr, ptr %6, align 8
  call void @llvm.memcpy.p0.p0.i64(ptr align 1 %27, ptr align 4 %4, i64 4, i1 false)
  %28 = getelementptr inbounds nuw %"class.Assimp::StreamWriter", ptr %7, i32 0, i32 3
  %29 = load i64, ptr %28, align 8
  %30 = add i64 %29, 4
  store i64 %30, ptr %28, align 8
  call void @llvm.lifetime.end.p0(i64 8, ptr %6) #20
  ret void
}

; Function Attrs: mustprogress uwtable
define linkonce_odr hidden void @_ZN6Assimp12StreamWriterILb0ELb0EE3PutItEEvT_(ptr noundef nonnull align 8 dereferenceable(56) %0, i16 noundef zeroext %1) #1 comdat align 2 {
  %3 = alloca ptr, align 8
  %4 = alloca i16, align 2
  %5 = alloca %"struct.Assimp::Intern::Getter.36", align 1
  %6 = alloca ptr, align 8
  store ptr %0, ptr %3, align 8
  store i16 %1, ptr %4, align 2
  %7 = load ptr, ptr %3, align 8
  call void @llvm.lifetime.start.p0(i64 1, ptr %5) #20
  %8 = getelementptr inbounds nuw %"class.Assimp::StreamWriter", ptr %7, i32 0, i32 1
  %9 = load i8, ptr %8, align 8, !range !3, !noundef !4
  %10 = trunc i8 %9 to i1
  call void @_ZN6Assimp6Intern6GetterILb0EtLb0EEclEPtb(ptr noundef nonnull align 1 dereferenceable(1) %5, ptr noundef %4, i1 noundef zeroext %10)
  call void @llvm.lifetime.end.p0(i64 1, ptr %5) #20
  %11 = getelementptr inbounds nuw %"class.Assimp::StreamWriter", ptr %7, i32 0, i32 3
  %12 = load i64, ptr %11, align 8
  %13 = add i64 %12, 2
  %14 = getelementptr inbounds nuw %"class.Assimp::StreamWriter", ptr %7, i32 0, i32 2
  %15 = call noundef i64 @_ZNKSt6vectorIhSaIhEE4sizeEv(ptr noundef nonnull align 8 dereferenceable(24) %14) #20
  %16 = icmp uge i64 %13, %15
  br i1 %16, label %17, label %22

17:                                               ; preds = %2
  %18 = getelementptr inbounds nuw %"class.Assimp::StreamWriter", ptr %7, i32 0, i32 2
  %19 = getelementptr inbounds nuw %"class.Assimp::StreamWriter", ptr %7, i32 0, i32 3
  %20 = load i64, ptr %19, align 8
  %21 = add i64 %20, 2
  call void @_ZNSt6vectorIhSaIhEE6resizeEm(ptr noundef nonnull align 8 dereferenceable(24) %18, i64 noundef %21)
  br label %22

22:                                               ; preds = %17, %2
  call void @llvm.lifetime.start.p0(i64 8, ptr %6) #20
  %23 = getelementptr inbounds nuw %"class.Assimp::StreamWriter", ptr %7, i32 0, i32 2
  %24 = getelementptr inbounds nuw %"class.Assimp::StreamWriter", ptr %7, i32 0, i32 3
  %25 = load i64, ptr %24, align 8
  %26 = call noundef nonnull align 1 dereferenceable(1) ptr @_ZNSt6vectorIhSaIhEEixEm(ptr noundef nonnull align 8 dereferenceable(24) %23, i64 noundef %25) #20
  store ptr %26, ptr %6, align 8
  %27 = load ptr, ptr %6, align 8
  call void @llvm.memcpy.p0.p0.i64(ptr align 1 %27, ptr align 2 %4, i64 2, i1 false)
  %28 = getelementptr inbounds nuw %"class.Assimp::StreamWriter", ptr %7, i32 0, i32 3
  %29 = load i64, ptr %28, align 8
  %30 = add i64 %29, 2
  store i64 %30, ptr %28, align 8
  call void @llvm.lifetime.end.p0(i64 8, ptr %6) #20
  ret void
}

; Function Attrs: mustprogress uwtable
define linkonce_odr hidden void @_ZN6Assimp12StreamWriterILb0ELb0EE3PutIfEEvT_(ptr noundef nonnull align 8 dereferenceable(56) %0, float noundef %1) #1 comdat align 2 {
  %3 = alloca ptr, align 8
  %4 = alloca float, align 4
  %5 = alloca %"struct.Assimp::Intern::Getter.40", align 1
  %6 = alloca ptr, align 8
  store ptr %0, ptr %3, align 8
  store float %1, ptr %4, align 4
  %7 = load ptr, ptr %3, align 8
  call void @llvm.lifetime.start.p0(i64 1, ptr %5) #20
  %8 = getelementptr inbounds nuw %"class.Assimp::StreamWriter", ptr %7, i32 0, i32 1
  %9 = load i8, ptr %8, align 8, !range !3, !noundef !4
  %10 = trunc i8 %9 to i1
  call void @_ZN6Assimp6Intern6GetterILb0EfLb0EEclEPfb(ptr noundef nonnull align 1 dereferenceable(1) %5, ptr noundef %4, i1 noundef zeroext %10)
  call void @llvm.lifetime.end.p0(i64 1, ptr %5) #20
  %11 = getelementptr inbounds nuw %"class.Assimp::StreamWriter", ptr %7, i32 0, i32 3
  %12 = load i64, ptr %11, align 8
  %13 = add i64 %12, 4
  %14 = getelementptr inbounds nuw %"class.Assimp::StreamWriter", ptr %7, i32 0, i32 2
  %15 = call noundef i64 @_ZNKSt6vectorIhSaIhEE4sizeEv(ptr noundef nonnull align 8 dereferenceable(24) %14) #20
  %16 = icmp uge i64 %13, %15
  br i1 %16, label %17, label %22

17:                                               ; preds = %2
  %18 = getelementptr inbounds nuw %"class.Assimp::StreamWriter", ptr %7, i32 0, i32 2
  %19 = getelementptr inbounds nuw %"class.Assimp::StreamWriter", ptr %7, i32 0, i32 3
  %20 = load i64, ptr %19, align 8
  %21 = add i64 %20, 4
  call void @_ZNSt6vectorIhSaIhEE6resizeEm(ptr noundef nonnull align 8 dereferenceable(24) %18, i64 noundef %21)
  br label %22

22:                                               ; preds = %17, %2
  call void @llvm.lifetime.start.p0(i64 8, ptr %6) #20
  %23 = getelementptr inbounds nuw %"class.Assimp::StreamWriter", ptr %7, i32 0, i32 2
  %24 = getelementptr inbounds nuw %"class.Assimp::StreamWriter", ptr %7, i32 0, i32 3
  %25 = load i64, ptr %24, align 8
  %26 = call noundef nonnull align 1 dereferenceable(1) ptr @_ZNSt6vectorIhSaIhEEixEm(ptr noundef nonnull align 8 dereferenceable(24) %23, i64 noundef %25) #20
  store ptr %26, ptr %6, align 8
  %27 = load ptr, ptr %6, align 8
  call void @llvm.memcpy.p0.p0.i64(ptr align 1 %27, ptr align 4 %4, i64 4, i1 false)
  %28 = getelementptr inbounds nuw %"class.Assimp::StreamWriter", ptr %7, i32 0, i32 3
  %29 = load i64, ptr %28, align 8
  %30 = add i64 %29, 4
  store i64 %30, ptr %28, align 8
  call void @llvm.lifetime.end.p0(i64 8, ptr %6) #20
  ret void
}

; Function Attrs: mustprogress uwtable
define linkonce_odr hidden void @_ZN6Assimp12StreamWriterILb0ELb0EE5PutU4Ej(ptr noundef nonnull align 8 dereferenceable(56) %0, i32 noundef %1) #1 comdat align 2 {
  %3 = alloca ptr, align 8
  %4 = alloca i32, align 4
  store ptr %0, ptr %3, align 8
  store i32 %1, ptr %4, align 4
  %5 = load ptr, ptr %3, align 8
  %6 = load i32, ptr %4, align 4
  call void @_ZN6Assimp12StreamWriterILb0ELb0EE3PutIjEEvT_(ptr noundef nonnull align 8 dereferenceable(56) %5, i32 noundef %6)
  ret void
}

; Function Attrs: mustprogress uwtable
define linkonce_odr hidden void @_ZN6Assimp12StreamWriterILb0ELb0EE5PutU2Et(ptr noundef nonnull align 8 dereferenceable(56) %0, i16 noundef zeroext %1) #1 comdat align 2 {
  %3 = alloca ptr, align 8
  %4 = alloca i16, align 2
  store ptr %0, ptr %3, align 8
  store i16 %1, ptr %4, align 2
  %5 = load ptr, ptr %3, align 8
  %6 = load i16, ptr %4, align 2
  call void @_ZN6Assimp12StreamWriterILb0ELb0EE3PutItEEvT_(ptr noundef nonnull align 8 dereferenceable(56) %5, i16 noundef zeroext %6)
  ret void
}

; Function Attrs: mustprogress nounwind uwtable
define linkonce_odr hidden noundef i64 @_ZNK6Assimp12StreamWriterILb0ELb0EE13GetCurrentPosEv(ptr noundef nonnull align 8 dereferenceable(56) %0) #3 comdat align 2 {
  %2 = alloca ptr, align 8
  store ptr %0, ptr %2, align 8
  %3 = load ptr, ptr %2, align 8
  %4 = getelementptr inbounds nuw %"class.Assimp::StreamWriter", ptr %3, i32 0, i32 3
  %5 = load i64, ptr %4, align 8
  ret i64 %5
}

; Function Attrs: mustprogress uwtable
define linkonce_odr hidden void @_ZN6Assimp12StreamWriterILb0ELb0EE5PutF4Ef(ptr noundef nonnull align 8 dereferenceable(56) %0, float noundef %1) #1 comdat align 2 {
  %3 = alloca ptr, align 8
  %4 = alloca float, align 4
  store ptr %0, ptr %3, align 8
  store float %1, ptr %4, align 4
  %5 = load ptr, ptr %3, align 8
  %6 = load float, ptr %4, align 4
  call void @_ZN6Assimp12StreamWriterILb0ELb0EE3PutIfEEvT_(ptr noundef nonnull align 8 dereferenceable(56) %5, float noundef %6)
  ret void
}

; Function Attrs: mustprogress uwtable
define internal void @_ZN6Assimp12_GLOBAL__N_111ChunkWriterC2ERNS_12StreamWriterILb0ELb0EEEt(ptr noundef nonnull align 8 dereferenceable(16) %0, ptr noundef nonnull align 8 dereferenceable(56) %1, i16 noundef zeroext %2) unnamed_addr #1 align 2 {
  %4 = alloca ptr, align 8
  %5 = alloca ptr, align 8
  %6 = alloca i16, align 2
  store ptr %0, ptr %4, align 8
  store ptr %1, ptr %5, align 8
  store i16 %2, ptr %6, align 2
  %7 = load ptr, ptr %4, align 8
  %8 = getelementptr inbounds nuw %"class.Assimp::(anonymous namespace)::ChunkWriter", ptr %7, i32 0, i32 0
  %9 = load ptr, ptr %5, align 8
  store ptr %9, ptr %8, align 8
  %10 = load ptr, ptr %5, align 8
  %11 = call noundef i64 @_ZNK6Assimp12StreamWriterILb0ELb0EE13GetCurrentPosEv(ptr noundef nonnull align 8 dereferenceable(56) %10)
  %12 = getelementptr inbounds nuw %"class.Assimp::(anonymous namespace)::ChunkWriter", ptr %7, i32 0, i32 1
  store i64 %11, ptr %12, align 8
  %13 = load ptr, ptr %5, align 8
  %14 = load i16, ptr %6, align 2
  call void @_ZN6Assimp12StreamWriterILb0ELb0EE5PutU2Et(ptr noundef nonnull align 8 dereferenceable(56) %13, i16 noundef zeroext %14)
  %15 = load ptr, ptr %5, align 8
  call void @_ZN6Assimp12StreamWriterILb0ELb0EE5PutU4Ej(ptr noundef nonnull align 8 dereferenceable(56) %15, i32 noundef -559038737)
  ret void
}

; Function Attrs: mustprogress uwtable
define hidden void @_ZN6Assimp19Discreet3DSExporter17WritePercentChunkEf(ptr noundef nonnull align 8 dereferenceable(160) %0, float noundef %1) #1 align 2 personality ptr @__gxx_personality_v0 {
  %3 = alloca ptr, align 8
  %4 = alloca float, align 4
  %5 = alloca %"class.Assimp::(anonymous namespace)::ChunkWriter", align 8
  %6 = alloca ptr, align 8
  %7 = alloca i32, align 4
  store ptr %0, ptr %3, align 8
  store float %1, ptr %4, align 4
  %8 = load ptr, ptr %3, align 8
  call void @llvm.lifetime.start.p0(i64 16, ptr %5) #20
  %9 = getelementptr inbounds nuw %"class.Assimp::Discreet3DSExporter", ptr %8, i32 0, i32 1
  call void @_ZN6Assimp12_GLOBAL__N_111ChunkWriterC2ERNS_12StreamWriterILb0ELb0EEEt(ptr noundef nonnull align 8 dereferenceable(16) %5, ptr noundef nonnull align 8 dereferenceable(56) %9, i16 noundef zeroext 49)
  %10 = getelementptr inbounds nuw %"class.Assimp::Discreet3DSExporter", ptr %8, i32 0, i32 1
  %11 = load float, ptr %4, align 4
  invoke void @_ZN6Assimp12StreamWriterILb0ELb0EE5PutF4Ef(ptr noundef nonnull align 8 dereferenceable(56) %10, float noundef %11)
          to label %12 unwind label %13

12:                                               ; preds = %2
  call void @_ZN6Assimp12_GLOBAL__N_111ChunkWriterD2Ev(ptr noundef nonnull align 8 dereferenceable(16) %5) #20
  call void @llvm.lifetime.end.p0(i64 16, ptr %5) #20
  ret void

13:                                               ; preds = %2
  %14 = landingpad { ptr, i32 }
          cleanup
  %15 = extractvalue { ptr, i32 } %14, 0
  store ptr %15, ptr %6, align 8
  %16 = extractvalue { ptr, i32 } %14, 1
  store i32 %16, ptr %7, align 4
  call void @_ZN6Assimp12_GLOBAL__N_111ChunkWriterD2Ev(ptr noundef nonnull align 8 dereferenceable(16) %5) #20
  call void @llvm.lifetime.end.p0(i64 16, ptr %5) #20
  br label %17

17:                                               ; preds = %13
  %18 = load ptr, ptr %6, align 8
  %19 = load i32, ptr %7, align 4
  %20 = insertvalue { ptr, i32 } poison, ptr %18, 0
  %21 = insertvalue { ptr, i32 } %20, i32 %19, 1
  resume { ptr, i32 } %21
}